target datalayout = "e-m:e-p270:32:32-p271:32:32-p272:64:64-i64:64-i128:128-f80:128-n8:16:32:64-S128"
target triple = "x86_64-pc-linux-gnu"

%struct.AVFilterContext = type { ptr, ptr, ptr, ptr, ptr, i32, ptr, ptr, i32, ptr, ptr, i32, i32, ptr, ptr, ptr, ptr, i32, ptr, i32, i32 }
%struct.APadContext = type { ptr, i64, i32, i32, i64, i64, i64, i64, i64, i64 }

@.str.15 = private unnamed_addr constant [57 x i8] c"Both whole and pad length are set, this is not possible\0A\00", align 1

; Function Attrs: cold nounwind optsize uwtable
define internal i32 @init(ptr noundef %0) #0 {
  %2 = alloca i32, align 4
  %3 = alloca ptr, align 8
  %4 = alloca ptr, align 8
  %5 = alloca i32, align 4
  store ptr %0, ptr %3, align 8, !tbaa !4
  call void @llvm.lifetime.start.p0(i64 8, ptr %4) #7
  %6 = load ptr, ptr %3, align 8, !tbaa !4
  %7 = getelementptr inbounds nuw %struct.AVFilterContext, ptr %6, i32 0, i32 9
  %8 = load ptr, ptr %7, align 8, !tbaa !9
  store ptr %8, ptr %4, align 8, !tbaa !22
  %9 = load ptr, ptr %4, align 8, !tbaa !22
  %10 = getelementptr inbounds nuw %struct.APadContext, ptr %9, i32 0, i32 1
  store i64 -9223372036854775808, ptr %10, align 8, !tbaa !24
  %11 = load ptr, ptr %4, align 8, !tbaa !22
  %12 = getelementptr inbounds nuw %struct.APadContext, ptr %11, i32 0, i32 6
  %13 = load i64, ptr %12, align 8, !tbaa !27
  %14 = icmp sge i64 %13, 0
  br i1 %14, label %15, label %22

15:                                               ; preds = %1
  %16 = load ptr, ptr %4, align 8, !tbaa !22
  %17 = getelementptr inbounds nuw %struct.APadContext, ptr %16, i32 0, i32 4
  %18 = load i64, ptr %17, align 8, !tbaa !28
  %19 = icmp sge i64 %18, 0
  br i1 %19, label %20, label %22

20:                                               ; preds = %15
  %21 = load ptr, ptr %3, align 8, !tbaa !4
  call void (ptr, i32, ptr, ...) @av_log(ptr noundef %21, i32 noundef 16, ptr noundef @.str.15)
  store i32 -22, ptr %2, align 4
  store i32 1, ptr %5, align 4
  br label %23

22:                                               ; preds = %15, %1
  store i32 0, ptr %2, align 4
  store i32 1, ptr %5, align 4
  br label %23

23:                                               ; preds = %22, %20
  call void @llvm.lifetime.end.p0(i64 8, ptr %4) #7
  %24 = load i32, ptr %2, align 4
  ret i32 %24
}